; Function Attrs: nounwind uwtable
define void @Spl_ManAddNode(ptr noundef readonly captures(none) %0, i32 noundef %1, ptr noundef readonly captures(none) %2) local_unnamed_addr #0 {
  %4 = getelementptr inbounds nuw i8, ptr %0, i64 64
  %5 = load ptr, ptr %4, align 8, !tbaa !57
  %6 = getelementptr inbounds nuw i8, ptr %5, i64 4
  %7 = load i32, ptr %6, align 4, !tbaa !35
  %8 = load i32, ptr %5, align 8, !tbaa !36
  %9 = icmp eq i32 %7, %8
  br i1 %9, label %10, label %.Vec_IntGrow.exit10_crit_edge.i

.Vec_IntGrow.exit10_crit_edge.i:                  ; preds = %3
  %.phi.trans.insert.i = getelementptr inbounds nuw i8, ptr %5, i64 8
  %.pre.i = load ptr, ptr %.phi.trans.insert.i, align 8, !tbaa !33
  br label %Vec_IntPush.exit

10:                                               ; preds = %3
  %11 = icmp slt i32 %7, 16
  br i1 %11, label %12, label %20

12:                                               ; preds = %10
  %13 = getelementptr inbounds nuw i8, ptr %5, i64 8
  %14 = load ptr, ptr %13, align 8, !tbaa !33
  %.not9.i.i = icmp eq ptr %14, null
  br i1 %.not9.i.i, label %17, label %15

15:                                               ; preds = %12
  %16 = tail call dereferenceable_or_null(64) ptr @realloc(ptr noundef nonnull %14, i64 noundef 64) #17
  br label %Vec_IntGrow.exit.i

17:                                               ; preds = %12
  %18 = tail call noalias dereferenceable_or_null(64) ptr @malloc(i64 noundef 64) #15
  br label %Vec_IntGrow.exit.i

Vec_IntGrow.exit.i:                               ; preds = %17, %15
  %19 = phi ptr [ %16, %15 ], [ %18, %17 ]
  store ptr %19, ptr %13, align 8, !tbaa !33
  store i32 16, ptr %5, align 8, !tbaa !36
  br label %Vec_IntPush.exit

20:                                               ; preds = %10
  %21 = shl nuw nsw i32 %7, 1
  %22 = getelementptr inbounds nuw i8, ptr %5, i64 8
  %23 = load ptr, ptr %22, align 8, !tbaa !33
  %.not9.i9.i = icmp eq ptr %23, null
  %24 = zext nneg i32 %21 to i64
  %25 = shl nuw nsw i64 %24, 2
  br i1 %.not9.i9.i, label %28, label %26

26:                                               ; preds = %20
  %27 = tail call ptr @realloc(ptr noundef nonnull %23, i64 noundef %25) #17
  br label %30

28:                                               ; preds = %20
  %29 = tail call noalias ptr @malloc(i64 noundef %25) #15
  br label %30

30:                                               ; preds = %28, %26
  %31 = phi ptr [ %27, %26 ], [ %29, %28 ]
  store ptr %31, ptr %22, align 8, !tbaa !33
  store i32 %21, ptr %5, align 8, !tbaa !36
  br label %Vec_IntPush.exit

Vec_IntPush.exit:                                 ; preds = %.Vec_IntGrow.exit10_crit_edge.i, %Vec_IntGrow.exit.i, %30
  %32 = phi ptr [ %.pre.i, %.Vec_IntGrow.exit10_crit_edge.i ], [ %31, %30 ], [ %19, %Vec_IntGrow.exit.i ]
  %33 = load i32, ptr %6, align 4, !tbaa !35
  %34 = add nsw i32 %33, 1
  store i32 %34, ptr %6, align 4, !tbaa !35
  %35 = sext i32 %33 to i64
  %36 = getelementptr inbounds i32, ptr %32, i64 %35
  store i32 %1, ptr %36, align 4, !tbaa !34
  %37 = getelementptr inbounds nuw i8, ptr %0, i64 40
  %38 = load ptr, ptr %37, align 8, !tbaa !54
  %39 = and i32 %1, 31
  %40 = shl nuw i32 1, %39
  %41 = getelementptr inbounds nuw i8, ptr %38, i64 8
  %42 = load ptr, ptr %41, align 8, !tbaa !50
  %43 = ashr i32 %1, 5
  %44 = sext i32 %43 to i64
  %45 = getelementptr inbounds i32, ptr %42, i64 %44
  %46 = load i32, ptr %45, align 4, !tbaa !34
  %47 = or i32 %46, %40
  store i32 %47, ptr %45, align 4, !tbaa !34
  %48 = getelementptr inbounds nuw i8, ptr %0, i64 80
  %49 = load ptr, ptr %48, align 8, !tbaa !59
  %50 = getelementptr i8, ptr %2, i64 4
  %.val67.i = load i32, ptr %50, align 4, !tbaa !35
  %51 = icmp sgt i32 %.val67.i, 0
  br i1 %51, label %.lr.ph.i, label %.critedge

.lr.ph.i:                                         ; preds = %Vec_IntPush.exit
  %52 = getelementptr i8, ptr %2, i64 8
  %53 = getelementptr inbounds nuw i8, ptr %49, i64 4
  %.phi.trans.insert.i.i = getelementptr inbounds nuw i8, ptr %49, i64 8
  br label %54

54:                                               ; preds = %Vec_IntPush.exit.i, %.lr.ph.i
  %indvars.iv.i = phi i64 [ 0, %.lr.ph.i ], [ %indvars.iv.next.i, %Vec_IntPush.exit.i ]
  %.val.i = load ptr, ptr %52, align 8, !tbaa !33
  %55 = getelementptr inbounds nuw i32, ptr %.val.i, i64 %indvars.iv.i
  %56 = load i32, ptr %55, align 4, !tbaa !34
  %57 = load i32, ptr %53, align 4, !tbaa !35
  %58 = load i32, ptr %49, align 8, !tbaa !36
  %59 = icmp eq i32 %57, %58
  br i1 %59, label %60, label %.Vec_IntGrow.exit10_crit_edge.i.i

.Vec_IntGrow.exit10_crit_edge.i.i:                ; preds = %54
  %.pre.i.i = load ptr, ptr %.phi.trans.insert.i.i, align 8, !tbaa !33
  br label %Vec_IntPush.exit.i

60:                                               ; preds = %54
  %61 = icmp slt i32 %57, 16
  br i1 %61, label %62, label %69

62:                                               ; preds = %60
  %63 = load ptr, ptr %.phi.trans.insert.i.i, align 8, !tbaa !33
  %.not9.i.i.i = icmp eq ptr %63, null
  br i1 %.not9.i.i.i, label %66, label %64

64:                                               ; preds = %62
  %65 = tail call dereferenceable_or_null(64) ptr @realloc(ptr noundef nonnull %63, i64 noundef 64) #17
  br label %Vec_IntGrow.exit.i.i

66:                                               ; preds = %62
  %67 = tail call noalias dereferenceable_or_null(64) ptr @malloc(i64 noundef 64) #15
  br label %Vec_IntGrow.exit.i.i

Vec_IntGrow.exit.i.i:                             ; preds = %66, %64
  %68 = phi ptr [ %65, %64 ], [ %67, %66 ]
  store ptr %68, ptr %.phi.trans.insert.i.i, align 8, !tbaa !33
  store i32 16, ptr %49, align 8, !tbaa !36
  br label %Vec_IntPush.exit.i

69:                                               ; preds = %60
  %70 = shl nuw nsw i32 %57, 1
  %71 = load ptr, ptr %.phi.trans.insert.i.i, align 8, !tbaa !33
  %.not9.i9.i.i = icmp eq ptr %71, null
  %72 = zext nneg i32 %70 to i64
  %73 = shl nuw nsw i64 %72, 2
  br i1 %.not9.i9.i.i, label %76, label %74

74:                                               ; preds = %69
  %75 = tail call ptr @realloc(ptr noundef nonnull %71, i64 noundef %73) #17
  br label %78

76:                                               ; preds = %69
  %77 = tail call noalias ptr @malloc(i64 noundef %73) #15
  br label %78

78:                                               ; preds = %76, %74
  %79 = phi ptr [ %75, %74 ], [ %77, %76 ]
  store ptr %79, ptr %.phi.trans.insert.i.i, align 8, !tbaa !33
  store i32 %70, ptr %49, align 8, !tbaa !36
  br label %Vec_IntPush.exit.i

Vec_IntPush.exit.i:                               ; preds = %78, %Vec_IntGrow.exit.i.i, %.Vec_IntGrow.exit10_crit_edge.i.i
  %80 = phi ptr [ %.pre.i.i, %.Vec_IntGrow.exit10_crit_edge.i.i ], [ %79, %78 ], [ %68, %Vec_IntGrow.exit.i.i ]
  %81 = load i32, ptr %53, align 4, !tbaa !35
  %82 = add nsw i32 %81, 1
  store i32 %82, ptr %53, align 4, !tbaa !35
  %83 = sext i32 %81 to i64
  %84 = getelementptr inbounds i32, ptr %80, i64 %83
  store i32 %56, ptr %84, align 4, !tbaa !34
  %indvars.iv.next.i = add nuw nsw i64 %indvars.iv.i, 1
  %.val6.i = load i32, ptr %50, align 4, !tbaa !35
  %85 = sext i32 %.val6.i to i64
  %86 = icmp slt i64 %indvars.iv.next.i, %85
  br i1 %86, label %54, label %Vec_IntAppend.exit, !llvm.loop !97

Vec_IntAppend.exit:                               ; preds = %Vec_IntPush.exit.i
  %87 = icmp sgt i32 %.val6.i, 0
  br i1 %87, label %.lr.ph, label %.critedge

.lr.ph:                                           ; preds = %Vec_IntAppend.exit
  %88 = getelementptr i8, ptr %2, i64 8
  %.val = load ptr, ptr %88, align 8, !tbaa !33
  %89 = getelementptr inbounds nuw i8, ptr %0, i64 48
  %90 = load ptr, ptr %89, align 8, !tbaa !55
  %91 = getelementptr inbounds nuw i8, ptr %90, i64 8
  %92 = load ptr, ptr %91, align 8, !tbaa !50
  br label %93

93:                                               ; preds = %.lr.ph, %93
  %indvars.iv = phi i64 [ 0, %.lr.ph ], [ %indvars.iv.next, %93 ]
  %94 = getelementptr inbounds nuw i32, ptr %.val, i64 %indvars.iv
  %95 = load i32, ptr %94, align 4, !tbaa !34
  %96 = and i32 %95, 31
  %97 = shl nuw i32 1, %96
  %98 = ashr i32 %95, 5
  %99 = sext i32 %98 to i64
  %100 = getelementptr inbounds i32, ptr %92, i64 %99
  %101 = load i32, ptr %100, align 4, !tbaa !34
  %102 = or i32 %101, %97
  store i32 %102, ptr %100, align 4, !tbaa !34
  %indvars.iv.next = add nuw nsw i64 %indvars.iv, 1
  %.val12 = load i32, ptr %50, align 4, !tbaa !35
  %103 = sext i32 %.val12 to i64
  %104 = icmp slt i64 %indvars.iv.next, %103
  br i1 %104, label %93, label %.critedge, !llvm.loop !102

.critedge:                                        ; preds = %93, %Vec_IntPush.exit, %Vec_IntAppend.exit
  ret void
}